(lp0
((S'499'
p1
S'180'
p2
tp3
F0.5217391304347826
tp4
a((S'695'
p5
S'677'
p6
tp7
F0.5
tp8
a((S'651'
p9
S'50'
p10
tp11
F0.5555555555555556
tp12
a((S'326'
p13
S'223'
p14
tp15
F0.5
tp16
a((S'829'
p17
S'312'
p18
tp19
F0.5454545454545454
tp20
a((S'755'
p21
S'150'
p22
tp23
F0.5789473684210527
tp24
a((S'49'
p25
S'317'
p26
tp27
F0.5
tp28
a((S'496'
p29
S'209'
p30
tp31
F0.5
tp32
a((S'775'
p33
S'389'
p34
tp35
F0.6111111111111112
tp36
a((S'684'
p37
S'27'
p38
tp39
F0.5555555555555556
tp40
a((S'787'
p41
S'499'
p42
tp43
F0.5714285714285714
tp44
a((S'820'
p45
S'298'
p46
tp47
F0.5
tp48
a((S'505'
p49
S'223'
p50
tp51
F0.5882352941176471
tp52
a((S'8'
p53
S'310'
p54
tp55
F0.5454545454545454
tp56
a((S'316'
p57
S'315'
p58
tp59
F0.5
tp60
a((S'578'
p61
S'545'
p62
tp63
F0.5384615384615384
tp64
a((S'50'
p65
S'227'
p66
tp67
F0.6
tp68
a((S'79'
p69
S'397'
p70
tp71
F0.5
tp72
a((S'555'
p73
S'154'
p74
tp75
F0.5
tp76
a((S'730'
p77
S'223'
p78
tp79
F0.5
tp80
a((S'393'
p81
S'23'
p82
tp83
F0.5384615384615384
tp84
a((S'815'
p85
S'30'
p86
tp87
F0.6086956521739131
tp88
a((S'816'
p89
S'787'
p90
tp91
F0.6666666666666667
tp92
a((S'390'
p93
S'389'
p94
tp95
F0.5789473684210527
tp96
a((S'812'
p97
S'230'
p98
tp99
F0.75
tp100
a((S'300'
p101
S'215'
p102
tp103
F0.5
tp104
a((S'347'
p105
S'233'
p106
tp107
F0.5625
tp108
a((S'706'
p109
S'286'
p110
tp111
F0.5
tp112
a((S'612'
p113
S'105'
p114
tp115
F0.5
tp116
a((S'263'
p117
S'214'
p118
tp119
F0.7142857142857143
tp120
a((S'464'
p121
S'31'
p122
tp123
F0.5
tp124
a((S'784'
p125
S'524'
p126
tp127
F0.5
tp128
a((S'540'
p129
S'315'
p130
tp131
F0.5
tp132
a((S'628'
p133
S'29'
p134
tp135
F0.5
tp136
a((S'36'
p137
S'319'
p138
tp139
F0.5454545454545454
tp140
a((S'598'
p141
S'251'
p142
tp143
F0.5454545454545454
tp144
a((S'650'
p145
S'149'
p146
tp147
F0.5714285714285714
tp148
a((g65
S'317'
p149
tp150
F0.5
tp151
a((g21
S'254'
p152
tp153
F0.5
tp154
a((S'837'
p155
S'775'
p156
tp157
F0.52
tp158
a((S'585'
p159
S'140'
p160
tp161
F0.6842105263157895
tp162
a((S'825'
p163
S'663'
p164
tp165
F0.5217391304347826
tp166
a((S'584'
p167
S'294'
p168
tp169
F0.5
tp170
a((g29
S'208'
p171
tp172
F0.5
tp173
a((S'828'
p174
S'7'
p175
tp176
F0.5
tp177
a((S'569'
p178
S'568'
p179
tp180
F0.5833333333333333
tp181
a((S'179'
p182
S'177'
p183
tp184
F0.5142857142857142
tp185
a((S'752'
p186
S'524'
p187
tp188
F0.5555555555555556
tp189
a((S'95'
p190
S'416'
p191
tp192
F0.5
tp193
a((S'782'
p194
S'15'
p195
tp196
F0.5238095238095238
tp197
a((S'437'
p198
S'133'
p199
tp200
F0.6666666666666667
tp201
a((g163
S'150'
p202
tp203
F0.5909090909090908
tp204
a((S'91'
p205
S'160'
p206
tp207
F0.5714285714285714
tp208
a((S'471'
p209
S'375'
p210
tp211
F0.6923076923076923
tp212
a((S'657'
p213
S'149'
p214
tp215
F0.5
tp216
a((S'536'
p217
S'34'
p218
tp219
F0.5
tp220
a((g41
S'663'
p221
tp222
F0.5652173913043479
tp223
a((g41
S'389'
p224
tp225
F0.6190476190476191
tp226
a((g205
S'375'
p227
tp228
F0.7
tp229
a((S'362'
p230
S'237'
p231
tp232
F0.5
tp233
a((S'234'
p234
S'107'
p235
tp236
F0.5833333333333333
tp237
a((S'97'
p238
S'422'
p239
tp240
F0.5
tp241
a((S'855'
p242
S'110'
p243
tp244
F0.6
tp245
a((S'383'
p246
S'286'
p247
tp248
F0.5
tp249
a((g117
S'215'
p250
tp251
F0.7142857142857143
tp252
a((S'395'
p253
S'273'
p254
tp255
F0.5
tp256
a((g93
S'219'
p257
tp258
F0.65
tp259
a((S'306'
p260
S'227'
p261
tp262
F0.6363636363636364
tp263
a((S'573'
p264
S'132'
p265
tp266
F0.5
tp267
a((S'571'
p268
S'552'
p269
tp270
F0.5384615384615384
tp271
a((S'90'
p272
S'411'
p273
tp274
F0.8
tp275
a((S'53'
p276
S'132'
p277
tp278
F0.5555555555555556
tp279
a((S'777'
p280
S'754'
p281
tp282
F0.5333333333333333
tp283
a((S'717'
p284
S'418'
p285
tp286
F0.5454545454545454
tp287
a((g21
S'663'
p288
tp289
F0.5217391304347826
tp290
a((S'624'
p291
S'330'
p292
tp293
F0.5
tp294
a((S'599'
p295
S'252'
p296
tp297
F0.5555555555555556
tp298
a((S'811'
p299
S'681'
p300
tp301
F0.5
tp302
a((S'564'
p303
S'222'
p304
tp305
F0.6153846153846154
tp306
a((g21
S'156'
p307
tp308
F0.5714285714285714
tp309
a((g25
S'315'
p310
tp311
F0.6
tp312
a((S'636'
p313
S'635'
p314
tp315
F0.5
tp316
a((S'629'
p317
S'473'
p318
tp319
F0.5555555555555556
tp320
a((S'180'
p321
S'176'
p322
tp323
F0.5714285714285714
tp324
a((S'405'
p325
S'280'
p326
tp327
F0.5714285714285714
tp328
a((S'485'
p329
S'370'
p330
tp331
F0.5
tp332
a((S'846'
p333
S'698'
p334
tp335
F0.5882352941176471
tp336
a((S'677'
p337
S'22'
p338
tp339
F0.5454545454545454
tp340
a((S'357'
p341
S'356'
p342
tp343
F0.7058823529411764
tp344
a((S'31'
p345
S'261'
p346
tp347
F0.5
tp348
a((g53
S'312'
p349
tp350
F0.5
tp351
a((S'342'
p352
S'233'
p353
tp354
F0.5333333333333333
tp355
a((g5
S'261'
p356
tp357
F0.5
tp358
a((S'642'
p359
S'312'
p360
tp361
F0.5
tp362
a((S'318'
p363
S'317'
p364
tp365
F0.5384615384615384
tp366
a((g242
S'377'
p367
tp368
F0.5384615384615384
tp369
a((S'315'
p370
S'310'
p371
tp372
F0.5454545454545454
tp373
a((S'452'
p374
S'223'
p375
tp376
F0.5833333333333333
tp377
a((g217
S'35'
p378
tp379
F0.5
tp380
a((g113
S'263'
p381
tp382
F0.5
tp383
a((g113
S'496'
p384
tp385
F0.6666666666666667
tp386
a((S'687'
p387
S'337'
p388
tp389
F0.7333333333333334
tp390
a((S'632'
p391
S'219'
p392
tp393
F0.65
tp394
a((g129
S'317'
p395
tp396
F0.9
tp397
a((S'527'
p398
S'368'
p399
tp400
F0.5
tp401
a((g284
S'342'
p402
tp403
F0.5
tp404
a((S'392'
p405
S'251'
p406
tp407
F0.5
tp408
a((g113
S'428'
p409
tp410
F0.5
tp411
a((g5
S'229'
p412
tp413
F0.5
tp414
a((S'761'
p415
S'360'
p416
tp417
F0.5
tp418
a((g291
S'109'
p419
tp420
F0.5
tp421
a((g65
S'311'
p422
tp423
F0.5454545454545454
tp424
a((S'792'
p425
S'555'
p426
tp427
F0.5
tp428
a((S'45'
p429
S'187'
p430
tp431
F0.5714285714285714
tp432
a((S'82'
p433
S'399'
p434
tp435
F0.5
tp436
a((S'770'
p437
S'134'
p438
tp439
F0.5652173913043479
tp440
a((g25
S'312'
p441
tp442
F0.5555555555555556
tp443
a((S'439'
p444
S'31'
p445
tp446
F0.5
tp447
a((S'760'
p448
S'283'
p449
tp450
F0.5
tp451
a((S'396'
p452
S'291'
p453
tp454
F0.5454545454545454
tp455
a((S'58'
p456
S'229'
p457
tp458
F0.5454545454545454
tp459
a((g370
S'313'
p460
tp461
F0.6363636363636364
tp462
a((S'619'
p463
S'213'
p464
tp465
F0.5333333333333333
tp466
a((g69
S'398'
p467
tp468
F0.5
tp469
a((g175
S'227'
p470
tp471
F0.7
tp472
a((S'497'
p473
S'452'
p474
tp475
F0.6
tp476
a((S'832'
p477
S'657'
p478
tp479
F0.5
tp480
a((S'92'
p481
S'159'
p482
tp483
F0.5714285714285714
tp484
a((g299
S'299'
p485
tp486
F0.5
tp487
a((g291
S'527'
p488
tp489
F0.5
tp490
a((S'380'
p491
S'163'
p492
tp493
F0.7142857142857143
tp494
a((S'474'
p495
S'451'
p496
tp497
F0.5555555555555556
tp498
a((S'402'
p499
S'206'
p500
tp501
F0.5
tp502
a((S'9'
p503
S'10'
p504
tp505
F0.6923076923076923
tp506
a((S'89'
p507
S'411'
p508
tp509
F0.8
tp510
a((S'702'
p511
S'461'
p512
tp513
F0.5294117647058824
tp514
a((S'817'
p515
S'815'
p516
tp517
F0.5185185185185186
tp518
a((S'592'
p519
S'336'
p520
tp521
F0.5
tp522
a((g129
S'316'
p523
tp524
F0.5
tp525
a((S'712'
p526
S'618'
p527
tp528
F0.5714285714285714
tp529
a((S'96'
p530
S'416'
p531
tp532
F0.5
tp533
a((S'397'
p534
S'273'
p535
tp536
F0.5
tp537
a((g198
S'110'
p538
tp539
F0.6666666666666667
tp540
a((g481
S'286'
p541
tp542
F0.5625
tp543
a((g374
S'159'
p544
tp545
F0.5714285714285714
tp546
a((g1
S'254'
p547
tp548
F0.5
tp549
a((S'532'
p550
S'222'
p551
tp552
F0.6923076923076923
tp553
a((g481
S'730'
p554
tp555
F0.5
tp556
a((S'605'
p557
S'255'
p558
tp559
F0.5
tp560
a((S'344'
p561
S'14'
p562
tp563
F0.8
tp564
a((S'654'
p565
S'195'
p566
tp567
F0.5
tp568
a((g25
S'313'
p569
tp570
F0.5454545454545454
tp571
a((S'732'
p572
S'535'
p573
tp574
F0.55
tp575
a((g155
S'156'
p576
tp577
F0.52
tp578
a((g1
S'150'
p579
tp580
F0.65
tp581
a((g374
S'375'
p582
tp583
F0.7
tp584
a((g33
S'150'
p585
tp586
F0.7222222222222222
tp587
a((S'261'
p588
S'229'
p589
tp590
F0.5
tp591
a((S'310'
p592
S'227'
p593
tp594
F0.6363636363636364
tp595
a((g425
S'718'
p596
tp597
F0.5714285714285714
tp598
a((S'795'
p599
S'254'
p600
tp601
F0.5714285714285714
tp602
a((g557
S'149'
p603
tp604
F0.5714285714285714
tp605
a((S'331'
p606
S'330'
p607
tp608
F0.5833333333333333
tp609
a((S'574'
p610
S'481'
p611
tp612
F0.5
tp613
a((g57
S'311'
p614
tp615
F0.5833333333333333
tp616
a((g125
S'531'
p617
tp618
F0.5263157894736843
tp619
a((S'75'
p620
S'674'
p621
tp622
F0.5833333333333333
tp623
a((g370
S'312'
p624
tp625
F0.5
tp626
a((S'495'
p627
S'360'
p628
tp629
F0.5
tp630
a((S'559'
p631
S'341'
p632
tp633
F0.5714285714285714
tp634
a((g526
S'589'
p635
tp636
F0.5
tp637
a((g113
S'261'
p638
tp639
F0.5
tp640
a((S'493'
p641
S'38'
p642
tp643
F0.5
tp644
a((S'821'
p645
S'524'
p646
tp647
F0.5
tp648
a((S'772'
p649
S'418'
p650
tp651
F0.5454545454545454
tp652
a((S'746'
p653
S'695'
p654
tp655
F0.5
tp656
a((S'377'
p657
S'347'
p658
tp659
F0.5
tp660
a((g481
S'471'
p661
tp662
F0.6153846153846154
tp663
a((S'690'
p664
S'223'
p665
tp666
F0.5384615384615384
tp667
a((S'426'
p668
S'31'
p669
tp670
F0.5
tp671
a((S'276'
p672
S'240'
p673
tp674
F0.5833333333333333
tp675
a((g627
S'296'
p676
tp677
F0.5555555555555556
tp678
a((S'740'
p679
S'29'
p680
tp681
F0.5
tp682
a((S'56'
p683
S'4'
p684
tp685
F0.5384615384615384
tp686
a((g65
S'313'
p687
tp688
F0.5454545454545454
tp689
a((g260
S'190'
p690
tp691
F0.5454545454545454
tp692
a((g295
S'251'
p693
tp694
F0.6363636363636364
tp695
a((g41
S'219'
p696
tp697
F0.5238095238095238
tp698
a((g141
S'135'
p699
tp700
F0.5384615384615384
tp701
a((g565
S'194'
p702
tp703
F0.5
tp704
a((S'645'
p705
S'341'
p706
tp707
F0.5555555555555556
tp708
a((S'694'
p709
S'560'
p710
tp711
F0.5
tp712
a((g5
S'666'
p713
tp714
F0.6
tp715
a((g276
S'341'
p716
tp717
F0.5555555555555556
tp718
a((g97
S'760'
p719
tp720
F0.5
tp721
a((g481
S'690'
p722
tp723
F0.5384615384615384
tp724
a((S'438'
p725
S'263'
p726
tp727
F0.5
tp728
a((g57
S'312'
p729
tp730
F0.5
tp731
a((g452
S'394'
p732
tp733
F0.5
tp734
a((S'375'
p735
S'326'
p736
tp737
F0.7272727272727273
tp738
a((S'99'
p739
S'109'
p740
tp741
F0.5
tp742
a((S'652'
p743
S'540'
p744
tp745
F0.5
tp746
a((g81
S'392'
p747
tp748
F0.5
tp749
a((S'662'
p750
S'622'
p751
tp752
F0.5
tp753
a((S'626'
p754
S'375'
p755
tp756
F0.5833333333333333
tp757
a((S'418'
p758
S'407'
p759
tp760
F0.5714285714285714
tp761
a((g125
S'451'
p762
tp763
F0.6666666666666667
tp764
a((S'711'
p765
S'539'
p766
tp767
F0.5
tp768
a((g209
S'452'
p769
tp770
F0.6153846153846154
tp771
a((g645
S'752'
p772
tp773
F0.5625
tp774
a((S'660'
p775
S'640'
p776
tp777
F0.5
tp778
a((g178
S'50'
p779
tp780
F0.5
tp781
a((S'229'
p782
S'149'
p783
tp784
F0.5
tp785
a((g109
S'626'
p786
tp787
F0.5833333333333333
tp788
a((g141
S'392'
p789
tp790
F0.5833333333333333
tp791
a((S'666'
p792
S'559'
p793
tp794
F0.5714285714285714
tp795
a((g205
S'626'
p796
tp797
F0.5
tp798
a((g109
S'497'
p799
tp800
F0.6363636363636364
tp801
a((g89
S'499'
p802
tp803
F0.6
tp804
a((g25
S'311'
p805
tp806
F0.5454545454545454
tp807
a((g205
S'690'
p808
tp809
F0.5384615384615384
tp810
a((g109
S'223'
p811
tp812
F0.6666666666666667
tp813
a((g743
S'227'
p814
tp815
F0.5
tp816
a((g57
S'313'
p817
tp818
F0.5
tp819
a((g284
S'662'
p820
tp821
F0.5454545454545454
tp822
a((S'703'
p823
S'464'
p824
tp825
F0.6666666666666667
tp826
a((g25
S'190'
p827
tp828
F0.6363636363636364
tp829
a((g155
S'825'
p830
tp831
F0.64
tp832
a((g125
S'752'
p833
tp834
F0.5625
tp835
a((g452
S'395'
p836
tp837
F0.5555555555555556
tp838
a((S'672'
p839
S'437'
p840
tp841
F0.5833333333333333
tp842
a((g109
S'326'
p843
tp844
F0.5454545454545454
tp845
a((S'501'
p846
S'500'
p847
tp848
F0.6875
tp849
a((S'836'
p850
S'254'
p851
tp852
F0.5
tp853
a((S'430'
p854
S'428'
p855
tp856
F0.5
tp857
a((g391
S'389'
p858
tp859
F0.5
tp860
a((g25
S'191'
p861
tp862
F0.6363636363636364
tp863
a((S'421'
p864
S'415'
p865
tp866
F0.5
tp867
a((S'683'
p868
S'24'
p869
tp870
F0.6296296296296297
tp871
a((g610
S'545'
p872
tp873
F0.6153846153846154
tp874
a((S'789'
p875
S'50'
p876
tp877
F0.5
tp878
a((g391
S'37'
p879
tp880
F0.6111111111111112
tp881
a((S'834'
p882
S'811'
p883
tp884
F0.5
tp885
a((g205
S'383'
p886
tp887
F0.5833333333333333
tp888
a((g398
S'133'
p889
tp890
F0.5
tp891
a((g268
S'555'
p892
tp893
F0.5384615384615384
tp894
a((g664
S'159'
p895
tp896
F0.5
tp897
a((S'618'
p898
S'35'
p899
tp900
F0.5
tp901
a((S'796'
p902
S'20'
p903
tp904
F0.6
tp905
a((g238
S'688'
p906
tp907
F0.6
tp908
a((g109
S'375'
p909
tp910
F0.5454545454545454
tp911
a((g198
S'109'
p912
tp913
F0.6666666666666667
tp914
a((g684
S'3'
p915
tp916
F0.5555555555555556
tp917
a((S'386'
p918
S'385'
p919
tp920
F0.5294117647058824
tp921
a((S'731'
p922
S'395'
p923
tp924
F0.5
tp925
a((S'622'
p926
S'461'
p927
tp928
F0.5294117647058824
tp929
a((g391
S'390'
p930
tp931
F0.6842105263157895
tp932
a((g758
S'377'
p933
tp934
F0.5384615384615384
tp935
a((S'776'
p936
S'134'
p937
tp938
F0.5652173913043479
tp939
a((S'394'
p940
S'252'
p941
tp942
F0.5
tp943
a((g175
S'540'
p944
tp945
F0.5
tp946
a((S'176'
p947
S'175'
p948
tp949
F0.5714285714285714
tp950
a((S'568'
p951
S'313'
p952
tp953
F0.5
tp954
a((g653
S'293'
p955
tp956
F0.5
tp957
a((S'594'
p958
S'261'
p959
tp960
F0.5714285714285714
tp961
a((g175
S'566'
p962
tp963
F0.5
tp964
a((S'722'
p965
S'552'
p966
tp967
F0.5384615384615384
tp968
a((g163
S'156'
p969
tp970
F0.5909090909090908
tp971
a((S'449'
p972
S'111'
p973
tp974
F0.5
tp975
a((g926
S'110'
p976
tp977
F0.5
tp978
a((g926
S'418'
p979
tp980
F0.5454545454545454
tp981
a((S'785'
p982
S'144'
p983
tp984
F0.5
tp985
a((S'470'
p986
S'199'
p987
tp988
F0.5555555555555556
tp989
a((g174
S'315'
p990
tp991
F0.7
tp992
a((S'639'
p993
S'166'
p994
tp995
F0.5
tp996
a((g141
S'347'
p997
tp998
F0.5
tp999
a((g5
S'592'
p1000
tp1001
F0.5
tp1002
a((g657
S'342'
p1003
tp1004
F0.5
tp1005
a((g109
S'481'
p1006
tp1007
F0.5454545454545454
tp1008
a((g754
S'505'
p1009
tp1010
F0.5882352941176471
tp1011
a((g175
S'50'
p1012
tp1013
F0.6
tp1014
a((g391
S'36'
p1015
tp1016
F0.6111111111111112
tp1017
a((g965
S'248'
p1018
tp1019
F0.5714285714285714
tp1020
a((S'653'
p1021
S'496'
p1022
tp1023
F0.5555555555555556
tp1024
a((g129
S'312'
p1025
tp1026
F0.5555555555555556
tp1027
a((g105
S'109'
p1028
tp1029
F0.5
tp1030
a((g93
S'36'
p1031
tp1032
F0.5789473684210527
tp1033
a((S'311'
p1034
S'310'
p1035
tp1036
F0.5454545454545454
tp1037
a((g178
S'49'
p1038
tp1039
F0.5
tp1040
a((g352
S'110'
p1041
tp1042
F0.5
tp1043
a((g750
S'109'
p1044
tp1045
F0.6
tp1046
a((S'39'
p1047
S'30'
p1048
tp1049
F0.6521739130434783
tp1050
a((S'699'
p1051
S'30'
p1052
tp1053
F0.5
tp1054
a((S'98'
p1055
S'688'
p1056
tp1057
F0.6
tp1058
a((S'66'
p1059
S'259'
p1060
tp1061
F0.5
tp1062
a((g850
S'816'
p1063
tp1064
F0.52
tp1065
a((g391
S'343'
p1066
tp1067
F0.5833333333333333
tp1068
a((S'477'
p1069
S'293'
p1070
tp1071
F0.5
tp1072
a((S'623'
p1073
S'622'
p1074
tp1075
F0.6
tp1076
a((g178
S'307'
p1077
tp1078
F0.5384615384615384
tp1079
a((S'478'
p1080
S'110'
p1081
tp1082
F0.5384615384615384
tp1083
a((S'408'
p1084
S'222'
p1085
tp1086
F0.5384615384615384
tp1087
a((S'847'
p1088
S'254'
p1089
tp1090
F0.5483870967741935
tp1091
a((g129
S'50'
p1092
tp1093
F0.5555555555555556
tp1094
a((g965
S'555'
p1095
tp1096
F0.5384615384615384
tp1097
a((S'663'
p1098
S'254'
p1099
tp1100
F0.5384615384615384
tp1101
a((S'747'
p1102
S'202'
p1103
tp1104
F0.5
tp1105
a((g163
S'775'
p1106
tp1107
F0.6818181818181819
tp1108
a((g163
S'343'
p1109
tp1110
F0.5
tp1111
a((g159
S'139'
p1112
tp1113
F0.65
tp1114
a((g758
S'330'
p1115
tp1116
F0.5
tp1117
a((S'494'
p1118
S'319'
p1119
tp1120
F0.5
tp1121
a((g291
S'622'
p1122
tp1123
F0.75
tp1124
a((S'286'
p1125
S'223'
p1126
tp1127
F0.5625
tp1128
a((S'793'
p1129
S'573'
p1130
tp1131
F0.5
tp1132
a((g1021
S'495'
p1133
tp1134
F0.5555555555555556
tp1135
a((g982
S'643'
p1136
tp1137
F0.5
tp1138
a((g743
S'568'
p1139
tp1140
F0.5833333333333333
tp1141
a((g754
S'326'
p1142
tp1143
F0.5833333333333333
tp1144
a((g387
S'127'
p1145
tp1146
F0.5294117647058824
tp1147
a((S'728'
p1148
S'709'
p1149
tp1150
F0.5
tp1151
a((S'753'
p1152
S'209'
p1153
tp1154
F0.5
tp1155
a((g33
S'755'
p1156
tp1157
F0.5789473684210527
tp1158
a((S'54'
p1159
S'131'
p1160
tp1161
F0.5555555555555556
tp1162
a((g750
S'330'
p1163
tp1164
F0.5833333333333333
tp1165
a((g606
S'133'
p1166
tp1167
F0.5833333333333333
tp1168
a((g33
S'762'
p1169
tp1170
F0.56
tp1171
a((g174
S'540'
p1172
tp1173
F0.6
tp1174
a((g178
S'308'
p1175
tp1176
F0.5333333333333333
tp1177
a((S'400'
p1178
S'382'
p1179
tp1180
F0.5
tp1181
a((S'412'
p1182
S'229'
p1183
tp1184
F0.5555555555555556
tp1185
a((g163
S'254'
p1186
tp1187
F0.5
tp1188
a((S'37'
p1189
S'343'
p1190
tp1191
F0.5416666666666667
tp1192
a((g725
S'181'
p1193
tp1194
F0.5
tp1195
a((g17
S'568'
p1196
tp1197
F0.5
tp1198
a((g1069
S'116'
p1199
tp1200
F0.5714285714285714
tp1201
a((S'538'
p1202
S'153'
p1203
tp1204
F0.5714285714285714
tp1205
a((g13
S'160'
p1206
tp1207
F0.5
tp1208
a((S'713'
p1209
S'308'
p1210
tp1211
F0.55
tp1212
a((S'307'
p1213
S'306'
p1214
tp1215
F0.6923076923076923
tp1216
a((g754
S'471'
p1217
tp1218
F0.6153846153846154
tp1219
a((g1102
S'203'
p1220
tp1221
F0.5
tp1222
a((S'688'
p1223
S'232'
p1224
tp1225
F0.5
tp1226
a((S'363'
p1227
S'110'
p1228
tp1229
F0.5
tp1230
a((g155
S'150'
p1231
tp1232
F0.52
tp1233
a((S'590'
p1234
S'246'
p1235
tp1236
F0.6153846153846154
tp1237
a((g750
S'133'
p1238
tp1239
F0.5454545454545454
tp1240
a((g792
S'657'
p1241
tp1242
F0.5
tp1243
a((g1152
S'341'
p1244
tp1245
F0.5
tp1246
a((g1152
S'360'
p1247
tp1248
F0.5
tp1249
a((g242
S'109'
p1250
tp1251
F0.6
tp1252
a((g242
S'437'
p1253
tp1254
F0.5
tp1255
a((g155
S'499'
p1256
tp1257
F0.56
tp1258
a((g972
S'34'
p1259
tp1260
F0.5
tp1261
a((g174
S'317'
p1262
tp1263
F0.5
tp1264
a((S'481'
p1265
S'44'
p1266
tp1267
F0.5
tp1268
a((g155
S'816'
p1269
tp1270
F0.56
tp1271
a((S'264'
p1272
S'236'
p1273
tp1274
F0.6
tp1275
a((g155
S'762'
p1276
tp1277
F0.56
tp1278
a((g291
S'623'
p1279
tp1280
F0.6
tp1281
a((g33
S'219'
p1282
tp1283
F0.55
tp1284
a((S'217'
p1285
S'178'
p1286
tp1287
F0.7
tp1288
a((S'67'
p1289
S'639'
p1290
tp1291
F0.5
tp1292
a((g1152
S'208'
p1293
tp1294
F0.5
tp1295
a((g503
S'273'
p1296
tp1297
F0.5384615384615384
tp1298
a((S'790'
p1299
S'601'
p1300
tp1301
F0.5
tp1302
a((S'756'
p1303
S'557'
p1304
tp1305
F0.5
tp1306
a((S'254'
p1307
S'150'
p1308
tp1309
F0.5769230769230769
tp1310
a((g550
S'408'
p1311
tp1312
F0.6153846153846154
tp1313
a((S'611'
p1314
S'288'
p1315
tp1316
F0.5
tp1317
a((g65
S'318'
p1318
tp1319
F0.5384615384615384
tp1320
a((g951
S'494'
p1321
tp1322
F0.5
tp1323
a((g631
S'149'
p1324
tp1325
F0.5714285714285714
tp1326
a((g109
S'452'
p1327
tp1328
F0.6363636363636364
tp1329
a((g163
S'180'
p1330
tp1331
F0.5217391304347826
tp1332
a((S'334'
p1333
S'230'
p1334
tp1335
F0.5
tp1336
a((g137
S'219'
p1337
tp1338
F0.6
tp1339
a((g398
S'407'
p1340
tp1341
F0.5
tp1342
a((g209
S'159'
p1343
tp1344
F0.5
tp1345
a((S'681'
p1346
S'412'
p1347
tp1348
F0.6666666666666667
tp1349
a((g213
S'595'
p1350
tp1351
F0.5
tp1352
a((S'539'
p1353
S'310'
p1354
tp1355
F0.6153846153846154
tp1356
a((g337
S'229'
p1357
tp1358
F0.75
tp1359
a((g868
S'39'
p1360
tp1361
F0.6521739130434783
tp1362
a((g33
S'156'
p1363
tp1364
F0.5714285714285714
tp1365
a((g965
S'154'
p1366
tp1367
F0.5714285714285714
tp1368
a((g352
S'330'
p1369
tp1370
F0.5
tp1371
a((g739
S'788'
p1372
tp1373
F0.5625
tp1374
a((S'289'
p1375
S'281'
p1376
tp1377
F0.5
tp1378
a((S'606'
p1379
S'164'
p1380
tp1381
F0.5
tp1382
a((S'780'
p1383
S'275'
p1384
tp1385
F0.5
tp1386
a((g370
S'191'
p1387
tp1388
F0.6363636363636364
tp1389
a((g186
S'474'
p1390
tp1391
F0.5
tp1392
a((g965
S'153'
p1393
tp1394
F0.5714285714285714
tp1395
a((S'30'
p1396
S'24'
p1397
tp1398
F0.5555555555555556
tp1399
a((g754
S'497'
p1400
tp1401
F0.5833333333333333
tp1402
a((g174
S'310'
p1403
tp1404
F0.6363636363636364
tp1405
a((g295
S'205'
p1406
tp1407
F0.5555555555555556
tp1408
a((g1073
S'133'
p1409
tp1410
F0.5333333333333333
tp1411
a((g113
S'209'
p1412
tp1413
F0.5
tp1414
a((g850
S'180'
p1415
tp1416
F0.56
tp1417
a((S'844'
p1418
S'55'
p1419
tp1420
F0.5384615384615384
tp1421
a((S'548'
p1422
S'365'
p1423
tp1424
F0.5714285714285714
tp1425
a((g129
S'227'
p1426
tp1427
F0.5
tp1428
a((g739
S'437'
p1429
tp1430
F0.5
tp1431
a((g936
S'39'
p1432
tp1433
F0.6842105263157895
tp1434
a((S'617'
p1435
S'449'
p1436
tp1437
F0.5
tp1438
a((g444
S'237'
p1439
tp1440
F0.5
tp1441
a((g129
S'49'
p1442
tp1443
F0.5555555555555556
tp1444
a((g1088
S'836'
p1445
tp1446
F0.5161290322580645
tp1447
a((g875
S'311'
p1448
tp1449
F0.5
tp1450
a((S'715'
p1451
S'572'
p1452
tp1453
F0.5
tp1454
a((g33
S'499'
p1455
tp1456
F0.55
tp1457
a((S'647'
p1458
S'224'
p1459
tp1460
F0.5384615384615384
tp1461
a((S'534'
p1462
S'255'
p1463
tp1464
F0.5454545454545454
tp1465
a((S'791'
p1466
S'695'
p1467
tp1468
F0.5714285714285714
tp1469
a((S'810'
p1470
S'773'
p1471
tp1472
F0.7741935483870968
tp1473
a((g526
S'34'
p1474
tp1475
F0.6153846153846154
tp1476
a((g875
S'49'
p1477
tp1478
F0.5
tp1479
a((S'744'
p1480
S'164'
p1481
tp1482
F0.6428571428571428
tp1483
a((g792
S'605'
p1484
tp1485
F0.5714285714285714
tp1486
a((g507
S'681'
p1487
tp1488
F0.5
tp1489
a((g854
S'261'
p1490
tp1491
F0.5
tp1492
a((S'411'
p1493
S'409'
p1494
tp1495
F0.5714285714285714
tp1496
a((g205
S'706'
p1497
tp1498
F0.5454545454545454
tp1499
a((g155
S'836'
p1500
tp1501
F0.52
tp1502
a((g73
S'552'
p1503
tp1504
F0.6923076923076923
tp1505
a((g477
S'271'
p1506
tp1507
F0.5
tp1508
a((S'118'
p1509
S'117'
p1510
tp1511
F0.6
tp1512
a((g926
S'109'
p1513
tp1514
F0.5
tp1515
a((g922
S'397'
p1516
tp1517
F0.5
tp1518
a((g473
S'383'
p1519
tp1520
F0.5
tp1521
a((g1383
S'276'
p1522
tp1523
F0.5
tp1524
a((g370
S'190'
p1525
tp1526
F0.6363636363636364
tp1527
a((g477
S'149'
p1528
tp1529
F0.5
tp1530
a((g705
S'613'
p1531
tp1532
F0.5555555555555556
tp1533
a((g41
S'762'
p1534
tp1535
F0.52
tp1536
a((g174
S'190'
p1537
tp1538
F0.6363636363636364
tp1539
a((g174
S'311'
p1540
tp1541
F0.5454545454545454
tp1542
a((g295
S'204'
p1543
tp1544
F0.5555555555555556
tp1545
a((g750
S'110'
p1546
tp1547
F0.6
tp1548
a((S'18'
p1549
S'17'
p1550
tp1551
F0.5555555555555556
tp1552
a((g606
S'212'
p1553
tp1554
F0.5714285714285714
tp1555
a((g198
S'213'
p1556
tp1557
F0.5
tp1558
a((g1418
S'56'
p1559
tp1560
F0.5384615384615384
tp1561
a((g982
S'536'
p1562
tp1563
F0.5454545454545454
tp1564
a((g926
S'478'
p1565
tp1566
F0.6153846153846154
tp1567
a((g664
S'375'
p1568
tp1569
F0.5384615384615384
tp1570
a((g65
S'308'
p1571
tp1572
F0.5333333333333333
tp1573
a((S'26'
p1574
S'258'
p1575
tp1576
F0.5
tp1577
a((S'656'
p1578
S'530'
p1579
tp1580
F0.6923076923076923
tp1581
a((g982
S'646'
p1582
tp1583
F0.6363636363636364
tp1584
a((S'575'
p1585
S'400'
p1586
tp1587
F0.7
tp1588
a((S'546'
p1589
S'482'
p1590
tp1591
F0.6
tp1592
a((g473
S'326'
p1593
tp1594
F0.7272727272727273
tp1595
a((g645
S'531'
p1596
tp1597
F0.5263157894736843
tp1598
a((g97
S'283'
p1599
tp1600
F0.5
tp1601
a((g1307
S'156'
p1602
tp1603
F0.5
tp1604
a((g854
S'214'
p1605
tp1606
F0.5714285714285714
tp1607
a((g387
S'461'
p1608
tp1609
F0.5294117647058824
tp1610
a((g5
S'581'
p1611
tp1612
F0.5
tp1613
a((g526
S'35'
p1614
tp1615
F0.6153846153846154
tp1616
a((S'341'
p1617
S'237'
p1618
tp1619
F0.5714285714285714
tp1620
a((S'312'
p1621
S'227'
p1622
tp1623
F0.5
tp1624
a((S'76'
p1625
S'388'
p1626
tp1627
F0.5
tp1628
a((g49
S'247'
p1629
tp1630
F0.5
tp1631
a((S'80'
p1632
S'395'
p1633
tp1634
F0.6666666666666667
tp1635
a((g1299
S'59'
p1636
tp1637
F0.5
tp1638
a((g53
S'651'
p1639
tp1640
F0.5
tp1641
a((g499
S'364'
p1642
tp1643
F0.5
tp1644
a((S'679'
p1645
S'142'
p1646
tp1647
F0.5625
tp1648
a((g137
S'343'
p1649
tp1650
F0.5416666666666667
tp1651
a((g109
S'690'
p1652
tp1653
F0.5384615384615384
tp1654
a((g1069
S'115'
p1655
tp1656
F0.5714285714285714
tp1657
a((g620
S'728'
p1658
tp1659
F0.5
tp1660
a((g526
S'136'
p1661
tp1662
F0.5
tp1663
a((g481
S'375'
p1664
tp1665
F0.7
tp1666
a((g217
S'493'
p1667
tp1668
F0.625
tp1669
a((S'389'
p1670
S'150'
p1671
tp1672
F0.7058823529411764
tp1673
a((g109
S'383'
p1674
tp1675
F0.5
tp1676
a((g972
S'310'
p1677
tp1678
F0.5454545454545454
tp1679
a((S'721'
p1680
S'374'
p1681
tp1682
F0.5555555555555556
tp1683
a((g53
S'568'
p1684
tp1685
F0.5
tp1686
a((g174
S'49'
p1687
tp1688
F0.6
tp1689
a((g65
S'190'
p1690
tp1691
F0.6363636363636364
tp1692
a((S'823'
p1693
S'458'
p1694
tp1695
F0.5
tp1696
a((g750
S'527'
p1697
tp1698
F0.6666666666666667
tp1699
a((g174
S'191'
p1700
tp1701
F0.6363636363636364
tp1702
a((g337
S'271'
p1703
tp1704
F0.5
tp1705
a((g735
S'159'
p1706
tp1707
F0.5
tp1708
a((g174
S'312'
p1709
tp1710
F0.6
tp1711
a((S'830'
p1712
S'313'
p1713
tp1714
F0.5454545454545454
tp1715
a((S'589'
p1716
S'585'
p1717
tp1718
F0.5
tp1719
a((g1716
S'136'
p1720
tp1721
F0.55
tp1722
a((g606
S'213'
p1723
tp1724
F0.5714285714285714
tp1725
a((g141
S'311'
p1726
tp1727
F0.5454545454545454
tp1728
a((g175
S'306'
p1729
tp1730
F0.6363636363636364
tp1731
a((S'607'
p1732
S'280'
p1733
tp1734
F0.5
tp1735
a((g922
S'645'
p1736
tp1737
F0.5
tp1738
a((S'798'
p1739
S'353'
p1740
tp1741
F0.5
tp1742
a((g217
S'263'
p1743
tp1744
F0.5
tp1745
a((g739
S'368'
p1746
tp1747
F0.5
tp1748
a((g898
S'34'
p1749
tp1750
F0.5
tp1751
a((g175
S'651'
p1752
tp1753
F0.5
tp1754
a((g481
S'452'
p1755
tp1756
F0.8
tp1757
a((S'800'
p1758
S'511'
p1759
tp1760
F0.5263157894736843
tp1761
a((g337
S'361'
p1762
tp1763
F0.5454545454545454
tp1764
a((g89
S'755'
p1765
tp1766
F0.6842105263157895
tp1767
a((g725
S'214'
p1768
tp1769
F0.5
tp1770
a((g743
S'50'
p1771
tp1772
F0.7
tp1773
a((g1625
S'561'
p1774
tp1775
F0.5
tp1776
a((g190
S'736'
p1777
tp1778
F0.6
tp1779
a((S'287'
p1780
S'193'
p1781
tp1782
F0.5714285714285714
tp1783
a((g25
S'318'
p1784
tp1785
F0.5384615384615384
tp1786
a((S'749'
p1787
S'684'
p1788
tp1789
F0.5
tp1790
a((S'550'
p1791
S'138'
p1792
tp1793
F0.5714285714285714
tp1794
a((S'46'
p1795
S'186'
p1796
tp1797
F0.5714285714285714
tp1798
a((g89
S'108'
p1799
tp1800
F0.5
tp1801
a((g765
S'311'
p1802
tp1803
F0.5
tp1804
a((g433
S'400'
p1805
tp1806
F0.5
tp1807
a((g53
S'306'
p1808
tp1809
F0.6363636363636364
tp1810
a((S'524'
p1811
S'451'
p1812
tp1813
F0.5
tp1814
a((g41
S'150'
p1815
tp1816
F0.6666666666666667
tp1817
a((g175
S'568'
p1818
tp1819
F0.5
tp1820
a((S'562'
p1821
S'495'
p1822
tp1823
F0.5
tp1824
a((S'781'
p1825
S'482'
p1826
tp1827
F0.5
tp1828
a((S'57'
p1829
S'229'
p1830
tp1831
F0.5454545454545454
tp1832
a((g754
S'383'
p1833
tp1834
F0.5833333333333333
tp1835
a((g1299
S'229'
p1836
tp1837
F0.5
tp1838
a((S'630'
p1839
S'557'
p1840
tp1841
F0.5
tp1842
a((g1080
S'109'
p1843
tp1844
F0.5384615384615384
tp1845
a((g65
S'191'
p1846
tp1847
F0.6363636363636364
tp1848
a((g683
S'459'
p1849
tp1850
F0.5384615384615384
tp1851
a((g242
S'133'
p1852
tp1853
F0.5454545454545454
tp1854
a((g875
S'711'
p1855
tp1856
F0.5
tp1857
a((g174
S'313'
p1858
tp1859
F0.5454545454545454
tp1860
a((g664
S'626'
p1861
tp1862
F0.5384615384615384
tp1863
a((g341
S'348'
p1864
tp1865
F0.5238095238095238
tp1866
a((g17
S'315'
p1867
tp1868
F0.6363636363636364
tp1869
a((g993
S'165'
p1870
tp1871
F0.5
tp1872
a((g113
S'214'
p1873
tp1874
F0.5714285714285714
tp1875
a((g415
S'391'
p1876
tp1877
F0.5
tp1878
a((S'831'
p1879
S'231'
p1880
tp1881
F0.8461538461538461
tp1882
a((g387
S'258'
p1883
tp1884
F0.5333333333333333
tp1885
a((S'296'
p1886
S'249'
p1887
tp1888
F0.5714285714285714
tp1889
a((S'233'
p1890
S'110'
p1891
tp1892
F0.5333333333333333
tp1893
a((S'572'
p1894
S'430'
p1895
tp1896
F0.5
tp1897
a((g13
S'159'
p1898
tp1899
F0.5
tp1900
a((g175
S'310'
p1901
tp1902
F0.5454545454545454
tp1903
a((S'710'
p1904
S'644'
p1905
tp1906
F0.5625
tp1907
a((g1480
S'380'
p1908
tp1909
F0.7142857142857143
tp1910
a((S'69'
p1911
S'355'
p1912
tp1913
F0.6
tp1914
a((g958
S'208'
p1915
tp1916
F0.5714285714285714
tp1917
a((S'856'
p1918
S'473'
p1919
tp1920
F0.5
tp1921
a((g175
S'652'
p1922
tp1923
F0.6
tp1924
a((g125
S'474'
p1925
tp1926
F0.5625
tp1927
a((g105
S'110'
p1928
tp1929
F0.5
tp1930
a((g321
S'156'
p1931
tp1932
F0.5652173913043479
tp1933
a((g163
S'389'
p1934
tp1935
F0.5
tp1936
a((g477
S'605'
p1937
tp1938
F0.5
tp1939
a((g9
S'49'
p1940
tp1941
F0.5555555555555556
tp1942
a((g725
S'215'
p1943
tp1944
F0.5
tp1945
a((S'473'
p1946
S'116'
p1947
tp1948
F0.5
tp1949
a((g1617
S'149'
p1950
tp1951
F0.5714285714285714
tp1952
a((S'610'
p1953
S'517'
p1954
tp1955
F0.5
tp1956
a((g295
S'393'
p1957
tp1958
F0.6363636363636364
tp1959
a((S'769'
p1960
S'636'
p1961
tp1962
F0.5263157894736843
tp1963
a((g1780
S'192'
p1964
tp1965
F0.5714285714285714
tp1966
a((g21
S'499'
p1967
tp1968
F0.6
tp1969
a((g17
S'49'
p1970
tp1971
F0.5454545454545454
tp1972
a((g113
S'208'
p1973
tp1974
F0.5
tp1975
a((g174
S'651'
p1976
tp1977
F0.5
tp1978
a((S'17'
p1979
S'119'
p1980
tp1981
F0.5
tp1982
a((g9
S'540'
p1983
tp1984
F0.5555555555555556
tp1985
a((g1795
S'187'
p1986
tp1987
F0.5714285714285714
tp1988
a((g242
S'368'
p1989
tp1990
F0.5
tp1991
a((g1670
S'180'
p1992
tp1993
F0.5652173913043479
tp1994
a((g765
S'310'
p1995
tp1996
F0.5
tp1997
a((g765
S'193'
p1998
tp1999
F0.5
tp2000
a((g246
S'375'
p2001
tp2002
F0.5
tp2003
a((S'557'
p2004
S'416'
p2005
tp2006
F0.5
tp2007
a((g1670
S'156'
p2008
tp2009
F0.5714285714285714
tp2010
a((g337
S'149'
p2011
tp2012
F0.5
tp2013
a((g850
S'787'
p2014
tp2015
F0.6
tp2016
a((g1549
S'144'
p2017
tp2018
F0.5
tp2019
a((g175
S'569'
p2020
tp2021
F0.5
tp2022
a((g89
S'150'
p2023
tp2024
F0.6666666666666667
tp2025
a((g792
S'592'
p2026
tp2027
F0.5
tp2028
a((g77
S'160'
p2029
tp2030
F0.5625
tp2031
a((g1047
S'24'
p2032
tp2033
F0.5925925925925926
tp2034
a((g1466
S'677'
p2035
tp2036
F0.5
tp2037
a((S'754'
p2038
S'142'
p2039
tp2040
F0.625
tp2041
a((S'529'
p2042
S'263'
p2043
tp2044
F0.5
tp2045
a((S'330'
p2046
S'233'
p2047
tp2048
F0.5333333333333333
tp2049
a((g1346
S'290'
p2050
tp2051
F0.5
tp2052
a((S'160'
p2053
S'139'
p2054
tp2055
F0.5
tp2056
a((g113
S'215'
p2057
tp2058
F0.5714285714285714
tp2059
a((S'178'
p2060
S'176'
p2061
tp2062
F0.6857142857142857
tp2063
a((S'682'
p2064
S'407'
p2065
tp2066
F0.5
tp2067
a((g1189
S'219'
p2068
tp2069
F0.6
tp2070
a((g926
S'377'
p2071
tp2072
F0.5384615384615384
tp2073
a((g653
S'451'
p2074
tp2075
F0.5555555555555556
tp2076
a((g2046
S'244'
p2077
tp2078
F0.5
tp2079
a((S'332'
p2080
S'111'
p2081
tp2082
F0.5
tp2083
a((g750
S'376'
p2084
tp2085
F0.5555555555555556
tp2086
a((g875
S'312'
p2087
tp2088
F0.5
tp2089
a((g557
S'417'
p2090
tp2091
F0.5
tp2092
a((g1
S'156'
p2093
tp2094
F0.6666666666666667
tp2095
a((g89
S'107'
p2096
tp2097
F0.5
tp2098
a((g958
S'209'
p2099
tp2100
F0.5714285714285714
tp2101
a((S'313'
p2102
S'306'
p2103
tp2104
F0.5454545454545454
tp2105
a((S'757'
p2106
S'278'
p2107
tp2108
F0.5
tp2109
a((g1632
S'598'
p2110
tp2111
F0.5
tp2112
a((g230
S'16'
p2113
tp2114
F0.5
tp2115
a((S'552'
p2116
g684
tp2117
F0.5
tp2118
a((S'818'
p2119
S'109'
p2120
tp2121
F0.5
tp2122
a((S'244'
p2123
S'213'
p2124
tp2125
F0.5
tp2126
a((S'741'
p2127
S'427'
p2128
tp2129
F0.5
tp2130
a((g743
S'49'
p2131
tp2132
F0.7
tp2133
a((g1466
S'54'
p2134
tp2135
F0.5555555555555556
tp2136
a((S'60'
p2137
S'332'
p2138
tp2139
F0.5714285714285714
tp2140
a((g69
S'645'
p2141
tp2142
F0.5833333333333333
tp2143
a((S'704'
p2144
S'274'
p2145
tp2146
F0.5833333333333333
tp2147
a((g1346
S'417'
p2148
tp2149
F0.625
tp2150
a((g875
S'227'
p2151
tp2152
F0.5
tp2153
a((g53
S'652'
p2154
tp2155
F0.6
tp2156
a((g1458
g684
tp2157
F0.75
tp2158
a((g37
S'28'
p2159
tp2160
F0.5555555555555556
tp2161
a((g765
S'192'
p2162
tp2163
F0.5
tp2164
a((g664
S'326'
p2165
tp2166
F0.5384615384615384
tp2167
a((g209
S'223'
p2168
tp2169
F0.5384615384615384
tp2170
a((g1346
S'594'
p2171
tp2172
F0.625
tp2173
a((g1480
S'163'
p2174
tp2175
F0.6428571428571428
tp2176
a((g1346
S'255'
p2177
tp2178
F0.625
tp2179
a((g1466
S'746'
p2180
tp2181
F0.5
tp2182
a((g190
S'136'
p2183
tp2184
F0.5
tp2185
a((g902
S'612'
p2186
tp2187
F0.5
tp2188
a((S'745'
p2189
S'732'
p2190
tp2191
F0.75
tp2192
a((S'174'
p2193
S'173'
p2194
tp2195
F0.8235294117647058
tp2196
a((g1379
S'163'
p2197
tp2198
F0.5
tp2199
a((g205
S'223'
p2200
tp2201
F0.5
tp2202
a((g41
S'254'
p2203
tp2204
F0.5
tp2205
a((g645
S'474'
p2206
tp2207
F0.5625
tp2208
a((g198
S'212'
p2209
tp2210
F0.5
tp2211
a((g936
S'770'
p2212
tp2213
F0.6190476190476191
tp2214
a((g387
S'128'
p2215
tp2216
F0.5294117647058824
tp2217
a((S'806'
p2218
S'535'
p2219
tp2220
F0.55
tp2221
a((g284
S'110'
p2222
tp2223
F0.5454545454545454
tp2224
a((g1621
S'310'
p2225
tp2226
F0.5454545454545454
tp2227
a((g1693
S'775'
p2228
tp2229
F0.5185185185185186
tp2230
a((g242
S'527'
p2231
tp2232
F0.5
tp2233
a((g174
S'50'
p2234
tp2235
F0.6
tp2236
a((g1979
S'120'
p2237
tp2238
F0.5
tp2239
a((g854
S'427'
p2240
tp2241
F0.5
tp2242
a((g898
S'449'
p2243
tp2244
F0.5
tp2245
a((g750
S'478'
p2246
tp2247
F0.5384615384615384
tp2248
a((g238
S'230'
p2249
tp2250
F0.5
tp2251
a((g303
S'536'
p2252
tp2253
F0.5454545454545454
tp2254
a((g1890
S'109'
p2255
tp2256
F0.5333333333333333
tp2257
a((g2080
S'112'
p2258
tp2259
F0.5
tp2260
a((g750
S'377'
p2261
tp2262
F0.5384615384615384
tp2263
a((g209
S'326'
p2264
tp2265
F0.6153846153846154
tp2266
a((g175
S'312'
p2267
tp2268
F0.5
tp2269
a((g405
S'23'
p2270
tp2271
F0.5384615384615384
tp2272
a((g97
S'334'
p2273
tp2274
F0.5
tp2275
a((g868
S'30'
p2276
tp2277
F0.6086956521739131
tp2278
a((g284
S'368'
p2279
tp2280
F0.5
tp2281
a((g205
S'497'
p2282
tp2283
F0.6
tp2284
a((g2123
S'212'
p2285
tp2286
F0.5
tp2287
a((g1129
S'132'
p2288
tp2289
F0.5
tp2290
a((g374
S'383'
p2291
tp2292
F0.5833333333333333
tp2293
a((g1466
S'53'
p2294
tp2295
F0.5555555555555556
tp2296
a((g280
S'141'
p2297
tp2298
F0.6
tp2299
a((g1088
S'663'
p2300
tp2301
F0.5161290322580645
tp2302
a((g765
S'191'
p2303
tp2304
F0.5714285714285714
tp2305
a((S'799'
p2306
S'581'
p2307
tp2308
F0.5454545454545454
tp2309
a((S'577'
p2310
S'538'
p2311
tp2312
F0.5
tp2313
a((g53
S'569'
p2314
tp2315
F0.5
tp2316
a((S'401'
p2317
S'355'
p2318
tp2319
F0.5333333333333333
tp2320
a((S'788'
p2321
S'109'
p2322
tp2323
F0.5333333333333333
tp2324
a((g190
S'135'
p2325
tp2326
F0.7692307692307692
tp2327
a((g1021
S'360'
p2328
tp2329
F0.5
tp2330
a((g77
S'139'
p2331
tp2332
F0.5
tp2333
a((g473
S'375'
p2334
tp2335
F0.6
tp2336
a((g839
S'418'
p2337
tp2338
F0.6363636363636364
tp2339
a((g89
S'156'
p2340
tp2341
F0.5714285714285714
tp2342
a((g415
S'638'
p2343
tp2344
F0.75
tp2345
a((g186
S'451'
p2346
tp2347
F0.5555555555555556
tp2348
a((g1621
S'311'
p2349
tp2350
F0.5454545454545454
tp2351
a((S'327'
p2352
S'305'
p2353
tp2354
F0.5
tp2355
a((g530
S'135'
p2356
tp2357
F0.7692307692307692
tp2358
a((g1265
S'43'
p2359
tp2360
F0.5
tp2361
a((g854
S'426'
p2362
tp2363
F0.5
tp2364
a((g951
S'308'
p2365
tp2366
F0.5333333333333333
tp2367
a((g850
S'755'
p2368
tp2369
F0.56
tp2370
a((S'460'
p2371
S'271'
p2372
tp2373
F0.5
tp2374
a((g627
S'339'
p2375
tp2376
F0.5555555555555556
tp2377
a((g679
S'427'
p2378
tp2379
F0.6
tp2380
a((g209
S'160'
p2381
tp2382
F0.5
tp2383
a((S'794'
p2384
S'793'
p2385
tp2386
F0.625
tp2387
a((g21
S'180'
p2388
tp2389
F0.6086956521739131
tp2390
a((S'88'
p2391
S'407'
p2392
tp2393
F0.6
tp2394
a((g1159
S'495'
p2395
tp2396
F0.6666666666666667
tp2397
a((g463
S'337'
p2398
tp2399
F0.6666666666666667
tp2400
a((g1632
S'394'
p2401
tp2402
F0.5
tp2403
a((g1670
S'254'
p2404
tp2405
F0.5
tp2406
a((g2046
S'133'
p2407
tp2408
F0.5833333333333333
tp2409
a((g1129
S'131'
p2410
tp2411
F0.5
tp2412
a((g1946
S'115'
p2413
tp2414
F0.5
tp2415
a((S'48'
p2416
S'281'
p2417
tp2418
F0.5
tp2419
a((g481
S'383'
p2420
tp2421
F0.5833333333333333
tp2422
a((S'461'
p2423
S'278'
p2424
tp2425
F0.5294117647058824
tp2426
a((S'428'
p2427
S'427'
p2428
tp2429
F0.6
tp2430
a((S'489'
p2431
S'447'
p2432
tp2433
F0.6153846153846154
tp2434
a((g174
S'652'
p2435
tp2436
F0.6
tp2437
a((g363
S'306'
p2438
tp2439
F0.5384615384615384
tp2440
a((g1466
S'360'
p2441
tp2442
F0.5
tp2443
a((g765
S'190'
p2444
tp2445
F0.5714285714285714
tp2446
a((S'455'
p2447
S'145'
p2448
tp2449
F0.5714285714285714
tp2450
a((g1034
S'227'
p2451
tp2452
F0.5454545454545454
tp2453
a((g503
S'556'
p2454
tp2455
F0.5384615384615384
tp2456
a((g481
S'160'
p2457
tp2458
F0.5714285714285714
tp2459
a((g592
S'190'
p2460
tp2461
F0.5454545454545454
tp2462
a((g1645
S'405'
p2463
tp2464
F0.5
tp2465
a((g69
S'598'
p2466
tp2467
F0.5
tp2468
a((g2064
S'478'
p2469
tp2470
F0.5
tp2471
a((g1451
S'62'
p2472
tp2473
F0.5
tp2474
a((g109
S'471'
p2475
tp2476
F0.5384615384615384
tp2477
a((S'142'
p2478
S'141'
p2479
tp2480
F0.6875
tp2481
a((g2189
S'535'
p2482
tp2483
F0.5
tp2484
a((g2321
S'437'
p2485
tp2486
F0.5333333333333333
tp2487
a((S'498'
p2488
S'328'
p2489
tp2490
F0.6
tp2491
a((g61
S'137'
p2492
tp2493
F0.5833333333333333
tp2494
a((g33
S'180'
p2495
tp2496
F0.5652173913043479
tp2497
a((g198
S'418'
p2498
tp2499
F0.5833333333333333
tp2500
a((g565
S'324'
p2501
tp2502
F0.5333333333333333
tp2503
a((g592
S'306'
p2504
tp2505
F0.5454545454545454
tp2506
a((g926
S'527'
p2507
tp2508
F0.5
tp2509
a((S'484'
p2510
S'379'
p2511
tp2512
F0.5
tp2513
a((g499
S'298'
p2514
tp2515
F0.5
tp2516
a((g649
S'198'
p2517
tp2518
F0.5
tp2519
a((S'602'
p2520
S'553'
p2521
tp2522
F0.5
tp2523
a((g839
S'527'
p2524
tp2525
F0.5
tp2526
a((S'84'
p2527
S'100'
p2528
tp2529
F0.5625
tp2530
a((g53
S'540'
p2531
tp2532
F0.5
tp2533
a((g45
S'263'
p2534
tp2535
F0.6
tp2536
a((S'52'
p2537
S'314'
p2538
tp2539
F0.6666666666666667
tp2540
a((g163
S'787'
p2541
tp2542
F0.5454545454545454
tp2543
a((g5
S'237'
p2544
tp2545
F0.6666666666666667
tp2546
a((g391
S'631'
p2547
tp2548
F0.5
tp2549
a((S'269'
p2550
S'12'
p2551
tp2552
F0.6666666666666667
tp2553
a((S'435'
p2554
S'262'
p2555
tp2556
F0.8125
tp2557
a((g352
S'109'
p2558
tp2559
F0.5
tp2560
a((g175
S'49'
p2561
tp2562
F0.6
tp2563
a((g1178
S'397'
p2564
tp2565
F0.5
tp2566
a((S'369'
p2567
S'216'
p2568
tp2569
F0.5384615384615384
tp2570
a((g5
S'341'
p2571
tp2572
F0.5714285714285714
tp2573
a((g850
S'762'
p2574
tp2575
F0.56
tp2576
a((S'648'
p2577
S'535'
p2578
tp2579
F0.7
tp2580
a((g2352
S'13'
p2581
tp2582
F0.5
tp2583
a((S'597'
p2584
S'424'
p2585
tp2586
F0.5263157894736843
tp2587
a((g415
S'572'
p2588
tp2589
F0.5
tp2590
a((g280
S'679'
p2591
tp2592
F0.5625
tp2593
a((g415
S'293'
p2594
tp2595
F0.5
tp2596
a((g481
S'223'
p2597
tp2598
F0.5
tp2599
a((S'159'
p2600
S'139'
p2601
tp2602
F0.5
tp2603
a((g936
S'773'
p2604
tp2605
F0.5161290322580645
tp2606
a((g89
S'389'
p2607
tp2608
F0.7222222222222222
tp2609
a((g592
S'191'
p2610
tp2611
F0.5454545454545454
tp2612
a((S'586'
p2613
S'273'
p2614
tp2615
F0.5
tp2616
a((g473
S'471'
p2617
tp2618
F0.5384615384615384
tp2619
a((g507
S'409'
p2620
tp2621
F0.7142857142857143
tp2622
a((S'762'
p2623
S'254'
p2624
tp2625
F0.5
tp2626
a((S'678'
p2627
S'498'
p2628
tp2629
F0.5
tp2630
a((S'556'
p2631
S'148'
p2632
tp2633
F0.5384615384615384
tp2634
a((g159
S'247'
p2635
tp2636
F0.5
tp2637
a((g155
S'180'
p2638
tp2639
F0.56
tp2640
a((g425
S'571'
p2641
tp2642
F0.7857142857142857
tp2643
a((g452
S'273'
p2644
tp2645
F0.5833333333333333
tp2646
a((g73
S'538'
p2647
tp2648
F0.6153846153846154
tp2649
a((g725
S'141'
p2650
tp2651
F0.5454545454545454
tp2652
a((g951
S'540'
p2653
tp2654
F0.5
tp2655
a((g77
S'140'
p2656
tp2657
F0.5263157894736843
tp2658
a((S'646'
p2659
S'564'
p2660
tp2661
F0.6363636363636364
tp2662
a((g163
S'762'
p2663
tp2664
F0.52
tp2665
a((g649
S'199'
p2666
tp2667
F0.5
tp2668
a((S'530'
p2669
S'290'
p2670
tp2671
F0.5555555555555556
tp2672
a((g1055
S'422'
p2673
tp2674
F0.5
tp2675
a((S'291'
p2676
S'273'
p2677
tp2678
F0.75
tp2679
a((S'283'
p2680
S'186'
p2681
tp2682
F0.5
tp2683
a((g839
S'133'
p2684
tp2685
F0.6363636363636364
tp2686
a((S'144'
p2687
S'143'
p2688
tp2689
F0.6428571428571428
tp2690
a((g242
S'622'
p2691
tp2692
F0.6
tp2693
a((g2550
S'11'
p2694
tp2695
F0.6666666666666667
tp2696
a((g2427
S'31'
p2697
tp2698
F0.5
tp2699
a((g750
S'244'
p2700
tp2701
F0.5
tp2702
a((g530
S'136'
p2703
tp2704
F0.5
tp2705
a((g2046
S'110'
p2706
tp2707
F0.5
tp2708
a((g664
S'247'
p2709
tp2710
F0.5
tp2711
a((S'802'
p2712
S'525'
p2713
tp2714
F0.5333333333333333
tp2715
a((g1223
S'548'
p2716
tp2717
F0.5
tp2718
a((g588
S'209'
p2719
tp2720
F0.5
tp2721
a((g41
S'156'
p2722
tp2723
F0.5238095238095238
tp2724
a((g242
S'662'
p2725
tp2726
F0.6666666666666667
tp2727
a((g491
S'164'
p2728
tp2729
F0.7142857142857143
tp2730
a((g284
S'527'
p2731
tp2732
F0.5833333333333333
tp2733
a((S'193'
p2734
S'10'
p2735
tp2736
F0.5384615384615384
tp2737
a((g1821
S'360'
p2738
tp2739
F0.5
tp2740
a((g765
S'307'
p2741
tp2742
F0.5
tp2743
a((g205
S'326'
p2744
tp2745
F0.6363636363636364
tp2746
a((g926
S'619'
p2747
tp2748
F0.6
tp2749
a((S'238'
p2750
S'234'
p2751
tp2752
F0.5833333333333333
tp2753
a((g534
S'396'
p2754
tp2755
F0.6666666666666667
tp2756
a((g1021
S'229'
p2757
tp2758
F0.5555555555555556
tp2759
a((g25
S'308'
p2760
tp2761
F0.5333333333333333
tp2762
a((g2631
S'147'
p2763
tp2764
F0.5384615384615384
tp2765
a((S'374'
p2766
S'332'
p2767
tp2768
F0.5714285714285714
tp2769
a((S'258'
p2770
S'25'
p2771
tp2772
F0.5
tp2773
a((g951
S'50'
p2774
tp2775
F0.5833333333333333
tp2776
a((S'252'
p2777
S'205'
p2778
tp2779
F0.5
tp2780
a((S'237'
p2781
S'129'
p2782
tp2783
F0.5
tp2784
a((S'319'
p2785
S'313'
p2786
tp2787
F0.5
tp2788
a((g5
S'657'
p2789
tp2790
F0.5
tp2791
a((g986
S'198'
p2792
tp2793
F0.5555555555555556
tp2794
a((g49
S'452'
p2795
tp2796
F0.5294117647058824
tp2797
a((S'581'
p2798
S'259'
p2799
tp2800
F0.5714285714285714
tp2801
a((g163
S'499'
p2802
tp2803
F0.5454545454545454
tp2804
a((g205
S'159'
p2805
tp2806
F0.5714285714285714
tp2807
a((g2680
S'187'
p2808
tp2809
F0.5
tp2810
a((S'305'
p2811
S'304'
p2812
tp2813
F0.5
tp2814
a((S'561'
p2815
S'48'
p2816
tp2817
F0.5
tp2818
a((g477
S'559'
p2819
tp2820
F0.5
tp2821
a((g1791
S'137'
p2822
tp2823
F0.5714285714285714
tp2824
a((g242
S'717'
p2825
tp2826
F0.6363636363636364
tp2827
a((g1159
S'341'
p2828
tp2829
F0.5555555555555556
tp2830
a((g1314
S'568'
p2831
tp2832
F0.5
tp2833
a((g2680
S'230'
p2834
tp2835
F0.5
tp2836
a((g926
S'621'
p2837
tp2838
F0.5
tp2839
a((g2447
S'146'
p2840
tp2841
F0.5714285714285714
tp2842
a((g588
S'208'
p2843
tp2844
F0.5
tp2845
a((g481
S'326'
p2846
tp2847
F0.6363636363636364
tp2848
a((g2038
S'244'
p2849
tp2850
F0.5333333333333333
tp2851
a((g1894
S'293'
p2852
tp2853
F0.5
tp2854
a((S'290'
p2855
S'229'
p2856
tp2857
F0.5
tp2858
a((g739
S'244'
p2859
tp2860
F0.5
tp2861
a((g1946
S'29'
p2862
tp2863
F0.5
tp2864
a((g1451
S'61'
p2865
tp2866
F0.5
tp2867
a((g534
S'395'
p2868
tp2869
F0.6666666666666667
tp2870
a((g1080
S'418'
p2871
tp2872
F0.5384615384615384
tp2873
a((g53
S'50'
p2874
tp2875
F0.6
tp2876
a((g782
S'13'
p2877
tp2878
F0.5
tp2879
a((g758
S'133'
p2880
tp2881
F0.6363636363636364
tp2882
a((g2321
S'783'
p2883
tp2884
F0.5
tp2885
a((g2777
S'204'
p2886
tp2887
F0.5
tp2888
a((g41
S'755'
p2889
tp2890
F0.6190476190476191
tp2891
a((g1821
S'296'
p2892
tp2893
F0.5
tp2894
a((g725
S'349'
p2895
tp2896
F0.5
tp2897
a((g657
S'110'
p2898
tp2899
F0.5384615384615384
tp2900
a((g1632
S'645'
p2901
tp2902
F0.5833333333333333
tp2903
a((g850
S'825'
p2904
tp2905
F0.52
tp2906
a((g557
S'559'
p2907
tp2908
F0.5714285714285714
tp2909
a((S'223'
p2910
S'160'
p2911
tp2912
F0.5714285714285714
tp2913
a((S'640'
p2914
S'144'
p2915
tp2916
F0.6428571428571428
tp2917
a((g284
S'109'
p2918
tp2919
F0.5454545454545454
tp2920
a((g89
S'180'
p2921
tp2922
F0.6086956521739131
tp2923
a((g242
S'624'
p2924
tp2925
F0.6666666666666667
tp2926
a((S'773'
p2927
S'134'
p2928
tp2929
F0.5483870967741935
tp2930
a((g276
S'495'
p2931
tp2932
F0.6666666666666667
tp2933
a((g951
S'49'
p2934
tp2935
F0.5833333333333333
tp2936
a((g2038
S'679'
p2937
tp2938
F0.5
tp2939
a((g391
S'319'
p2940
tp2941
F0.5909090909090908
tp2942
a((g178
S'314'
p2943
tp2944
F0.5
tp2945
a((g174
S'227'
p2946
tp2947
F0.5
tp2948
a((S'549'
p2949
S'242'
p2950
tp2951
F0.5625
tp2952
a((g163
S'816'
p2953
tp2954
F0.5909090909090908
tp2955
a((g982
S'222'
p2956
tp2957
F0.6153846153846154
tp2958
a((g1466
S'562'
p2959
tp2960
F0.5
tp2961
a((g606
S'233'
p2962
tp2963
F0.5333333333333333
tp2964
a((g1223
S'258'
p2965
tp2966
F0.5
tp2967
a((g145
S'302'
p2968
tp2969
F0.7142857142857143
tp2970
a((g1811
S'474'
p2971
tp2972
F0.5555555555555556
tp2973
a((g89
S'775'
p2974
tp2975
F0.6666666666666667
tp2976
a((S'504'
p2977
S'301'
p2978
tp2979
F0.6111111111111112
tp2980
a((g792
S'149'
p2981
tp2982
F0.6666666666666667
tp2983
a((g534
S'394'
p2984
tp2985
F0.5555555555555556
tp2986
a((S'339'
p2987
S'296'
p2988
tp2989
F0.5714285714285714
tp2990
a((g234
S'108'
p2991
tp2992
F0.5833333333333333
tp2993
a((S'413'
p2994
S'192'
p2995
tp2996
F0.5
tp2997
a((g205
S'471'
p2998
tp2999
F0.6153846153846154
tp3000
a((g1148
S'395'
p3001
tp3002
F0.5
tp3003
a((g145
S'290'
p3004
tp3005
F0.625
tp3006
a((g77
S'452'
p3007
tp3008
F0.5
tp3009
a((g664
S'160'
p3010
tp3011
F0.5
tp3012
a((g1617
S'129'
p3013
tp3014
F0.5
tp3015
a((g425
S'791'
p3016
tp3017
F0.5
tp3018
a((S'381'
p3019
S'249'
p3020
tp3021
F0.5833333333333333
tp3022
a((g77
S'326'
p3023
tp3024
F0.5
tp3025
a((g1466
S'465'
p3026
tp3027
F0.5
tp3028
a((g743
S'306'
p3029
tp3030
F0.8181818181818181
tp3031
a((S'343'
p3032
S'319'
p3033
tp3034
F0.625
tp3035
a((g93
S'37'
p3036
tp3037
F0.5789473684210527
tp3038
a((g448
S'230'
p3039
tp3040
F0.5
tp3041
a((g750
S'368'
p3042
tp3043
F0.5
tp3044
a((g1034
S'306'
p3045
tp3046
F0.5454545454545454
tp3047
a((g1353
S'191'
p3048
tp3049
F0.5384615384615384
tp3050
a((g481
S'706'
p3051
tp3052
F0.5454545454545454
tp3053
a((S'162'
p3054
S'161'
p3055
tp3056
F0.8076923076923077
tp3057
a((g198
S'330'
p3058
tp3059
F0.5
tp3060
a((g1333
S'235'
p3061
tp3062
F0.6
tp3063
a((g1418
S'811'
p3064
tp3065
F0.5454545454545454
tp3066
a((g982
S'564'
p3067
tp3068
F0.6363636363636364
tp3069
a((g1589
S'350'
p3070
tp3071
F0.6
tp3072
a((g754
S'452'
p3073
tp3074
F0.5
tp3075
a((g1466
S'312'
p3076
tp3077
F0.5
tp3078
a((g735
S'160'
p3079
tp3080
F0.5
tp3081
a((g374
S'286'
p3082
tp3083
F0.5
tp3084
a((g53
S'566'
p3085
tp3086
F0.5
tp3087
a((g242
S'244'
p3088
tp3089
F0.5
tp3090
a((S'427'
p3091
S'31'
p3092
tp3093
F0.5
tp3094
a((g205
S'730'
p3095
tp3096
F0.5
tp3097
a((g2910
S'159'
p3098
tp3099
F0.5714285714285714
tp3100
a((g155
S'663'
p3101
tp3102
F0.56
tp3103
a((g2994
S'193'
p3104
tp3105
F0.5
tp3106
a((g2310
S'524'
p3107
tp3108
F0.5
tp3109
a((g61
S'138'
p3110
tp3111
F0.5833333333333333
tp3112
a((g1152
S'613'
p3113
tp3114
F0.5
tp3115
a((g2623
S'663'
p3116
tp3117
F0.64
tp3118
a((g1480
S'606'
p3119
tp3120
F0.5384615384615384
tp3121
a((g850
S'775'
p3122
tp3123
F0.52
tp3124
a((S'368'
p3125
S'337'
p3126
tp3127
F0.5333333333333333
tp3128
a((g735
S'165'
p3129
tp3130
F0.5
tp3131
a((g2669
S'489'
p3132
tp3133
F0.5555555555555556
tp3134
a((g1098
S'499'
p3135
tp3136
F0.5217391304347826
tp3137
a((S'805'
p3138
S'670'
p3139
tp3140
F0.8947368421052632
tp3141
a((g743
S'307'
p3142
tp3143
F0.6923076923076923
tp3144
a((g1055
S'259'
p3145
tp3146
F0.5714285714285714
tp3147
a((S'337'
p3148
S'244'
p3149
tp3150
F0.5333333333333333
tp3151
a((g1632
S'397'
p3152
tp3153
F0.5
tp3154
a((S'51'
p3155
S'314'
p3156
tp3157
F0.6666666666666667
tp3158
a((g951
S'227'
p3159
tp3160
F0.5833333333333333
tp3161
a((S'87'
p3162
S'407'
p3163
tp3164
F0.6
tp3165
a((g1617
S'229'
p3166
tp3167
F0.5
tp3168
a((g653
S'681'
p3169
tp3170
F0.5
tp3171
a((g1632
S'398'
p3172
tp3173
F0.5
tp3174
a((g2127
S'740'
p3175
tp3176
F0.5
tp3177
a((g198
S'331'
p3178
tp3179
F0.5
tp3180
a((g850
S'156'
p3181
tp3182
F0.52
tp3183
a((g743
S'315'
p3184
tp3185
F0.5
tp3186
a((g41
S'775'
p3187
tp3188
F0.6190476190476191
tp3189
a((g1152
S'466'
p3190
tp3191
F0.5
tp3192
a((g2781
S'236'
p3193
tp3194
F0.5
tp3195
a((g1821
S'492'
p3196
tp3197
F0.5454545454545454
tp3198
a((g481
S'626'
p3199
tp3200
F0.5
tp3201
a((g645
S'451'
p3202
tp3203
F0.5555555555555556
tp3204
a((g1625
S'728'
p3205
tp3206
F0.5
tp3207
a((g1894
S'225'
p3208
tp3209
F0.5714285714285714
tp3210
a((S'664'
p3211
S'363'
p3212
tp3213
F0.7142857142857143
tp3214
a((S'436'
p3215
S'428'
p3216
tp3217
F0.5714285714285714
tp3218
a((g1152
S'681'
p3219
tp3220
F0.5
tp3221
a((g238
S'258'
p3222
tp3223
F0.5
tp3224
a((S'465'
p3225
S'341'
p3226
tp3227
F0.5
tp3228
a((g41
S'180'
p3229
tp3230
F0.5217391304347826
tp3231
a((g664
S'497'
p3232
tp3233
F0.5384615384615384
tp3234
a((g1466
S'229'
p3235
tp3236
F0.625
tp3237
a((g93
S'343'
p3238
tp3239
F0.5416666666666667
tp3240
a((g21
S'632'
p3241
tp3242
F0.5263157894736843
tp3243
a((g398
S'244'
p3244
tp3245
F0.5
tp3246
a((g1787
S'701'
p3247
tp3248
F0.5
tp3249
a((g174
g53
tp3250
F0.5
tp3251
a((g1034
S'191'
p3252
tp3253
F0.5454545454545454
tp3254
a((g1466
S'681'
p3255
tp3256
F0.5
tp3257
a((g515
S'180'
p3258
tp3259
F0.6666666666666667
tp3260
a((g17
S'306'
p3261
tp3262
F0.5454545454545454
tp3263
a((g1098
S'389'
p3264
tp3265
F0.6086956521739131
tp3266
a((S'325'
p3267
S'132'
p3268
tp3269
F0.5
tp3270
a((g2623
S'150'
p3271
tp3272
F0.56
tp3273
a((g1839
S'40'
p3274
tp3275
F0.5555555555555556
tp3276
a((g854
S'215'
p3277
tp3278
F0.5714285714285714
tp3279
a((g902
S'261'
p3280
tp3281
F0.5
tp3282
a((g3225
S'209'
p3283
tp3284
F0.5
tp3285
a((g65
S'312'
p3286
tp3287
F0.5555555555555556
tp3288
a((g178
S'540'
p3289
tp3290
F0.6666666666666667
tp3291
a((g477
S'666'
p3292
tp3293
F0.5
tp3294
a((g2038
S'200'
p3295
tp3296
F0.5333333333333333
tp3297
a((g926
S'278'
p3298
tp3299
F0.5333333333333333
tp3300
a((g113
S'427'
p3301
tp3302
F0.5
tp3303
a((g1189
S'319'
p3304
tp3305
F0.5454545454545454
tp3306
a((g1055
S'258'
p3307
tp3308
F0.5
tp3309
a((g260
S'191'
p3310
tp3311
F0.5454545454545454
tp3312
a((g295
S'399'
p3313
tp3314
F0.6666666666666667
tp3315
a((S'156'
p3316
S'150'
p3317
tp3318
F0.6666666666666667
tp3319
a((g743
S'191'
p3320
tp3321
F0.6363636363636364
tp3322
a((S'570'
p3323
S'228'
p3324
tp3325
F0.5185185185185186
tp3326
a((g739
S'100'
p3327
tp3328
F0.5
tp3329
a((g2659
S'222'
p3330
tp3331
F0.5384615384615384
tp3332
a((g2116
S'538'
p3333
tp3334
F0.6923076923076923
tp3335
a((g242
S'330'
p3336
tp3337
F0.5833333333333333
tp3338
a((g178
S'317'
p3339
tp3340
F0.5833333333333333
tp3341
a((S'177'
p3342
S'175'
p3343
tp3344
F0.6857142857142857
tp3345
a((g238
S'259'
p3346
tp3347
F0.5714285714285714
tp3348
a((g429
S'186'
p3349
tp3350
F0.5714285714285714
tp3351
a((g246
S'326'
p3352
tp3353
F0.5
tp3354
a((S'292'
p3355
S'10'
p3356
tp3357
F0.5555555555555556
tp3358
a((S'708'
p3359
S'203'
p3360
tp3361
F0.55
tp3362
a((g109
S'585'
p3363
tp3364
F0.5
tp3365
a((g1314
S'366'
p3366
tp3367
F0.5
tp3368
a((g291
S'377'
p3369
tp3370
F0.5384615384615384
tp3371
a((g5
S'149'
p3372
tp3373
F0.5
tp3374
a((g1034
S'190'
p3375
tp3376
F0.5454545454545454
tp3377
a((g850
S'499'
p3378
tp3379
F0.6
tp3380
a((g645
S'784'
p3381
tp3382
F0.5
tp3383
a((S'219'
p3384
S'150'
p3385
tp3386
F0.5
tp3387
a((S'55'
p3388
S'459'
p3389
tp3390
F0.5384615384615384
tp3391
a((g1073
S'478'
p3392
tp3393
F0.5333333333333333
tp3394
a((S'459'
p3395
g684
tp3396
F0.5
tp3397
a((g499
S'257'
p3398
tp3399
F0.5
tp3400
a((g3225
S'208'
p3401
tp3402
F0.5
tp3403
a((g2994
S'118'
p3404
tp3405
F0.5333333333333333
tp3406
a((g1102
S'743'
p3407
tp3408
F0.5652173913043479
tp3409
a((g2038
S'201'
p3410
tp3411
F0.5333333333333333
tp3412
a((g264
S'131'
p3413
tp3414
F0.5
tp3415
a((g1102
S'438'
p3416
tp3417
F0.5
tp3418
a((g1693
S'150'
p3419
tp3420
F0.5185185185185186
tp3421
a((g205
S'452'
p3422
tp3423
F0.8
tp3424
a((g530
S'736'
p3425
tp3426
F0.6
tp3427
a((g155
S'787'
p3428
tp3429
F0.6
tp3430
a((g926
S'330'
p3431
tp3432
F0.5
tp3433
a((g272
S'409'
p3434
tp3435
F0.7142857142857143
tp3436
a((g2815
S'47'
p3437
tp3438
F0.5
tp3439
a((S'643'
p3440
S'144'
p3441
tp3442
F0.5
tp3443
a((g77
S'247'
p3444
tp3445
F0.5
tp3446
a((g463
S'461'
p3447
tp3448
F0.5294117647058824
tp3449
a((S'613'
p3450
S'465'
p3451
tp3452
F0.5
tp3453
a((g1059
S'65'
p3454
tp3455
F0.5217391304347826
tp3456
a((S'63'
p3457
S'344'
p3458
tp3459
F0.5714285714285714
tp3460
a((g1055
S'230'
p3461
tp3462
F0.5
tp3463
a((g958
S'229'
p3464
tp3465
F0.5
tp3466
a((g792
S'250'
p3467
tp3468
F0.6
tp3469
a((S'251'
p3470
S'23'
p3471
tp3472
F0.5384615384615384
tp3473
a((g291
S'133'
p3474
tp3475
F0.5
tp3476
a((g9
S'227'
p3477
tp3478
F0.5
tp3479
a((S'466'
p3480
S'465'
p3481
tp3482
F0.5
tp3483
a((g53
S'227'
p3484
tp3485
F0.7
tp3486
a((g1732
S'397'
p3487
tp3488
F0.5
tp3489
a((g3359
S'202'
p3490
tp3491
F0.55
tp3492
a((g1299
S'60'
p3493
tp3494
F0.5
tp3495
a((g17
S'540'
p3496
tp3497
F0.5454545454545454
tp3498
a((g9
S'317'
p3499
tp3500
F0.5
tp3501
a((g473
S'223'
p3502
tp3503
F0.5
tp3504
a((g3019
S'274'
p3505
tp3506
F0.6666666666666667
tp3507
a((g557
S'209'
p3508
tp3509
F0.5714285714285714
tp3510
a((g657
S'109'
p3511
tp3512
F0.5384615384615384
tp3513
a((g1118
S'306'
p3514
tp3515
F0.5625
tp3516
a((g743
S'651'
p3517
tp3518
F0.5
tp3519
a((g45
S'529'
p3520
tp3521
F0.5
tp3522
a((g217
S'215'
p3523
tp3524
F0.5714285714285714
tp3525
a((g33
S'254'
p3526
tp3527
F0.5
tp3528
a((g5
S'208'
p3529
tp3530
F0.5
tp3531
a((g3032
S'219'
p3532
tp3533
F0.5416666666666667
tp3534
a((g21
S'389'
p3535
tp3536
F0.6842105263157895
tp3537
a((g557
S'208'
p3538
tp3539
F0.5714285714285714
tp3540
a((g242
S'672'
p3541
tp3542
F0.5454545454545454
tp3543
a((g5
S'209'
p3544
tp3545
F0.5
tp3546
a((S'709'
p3547
S'608'
p3548
tp3549
F0.5
tp3550
a((g1346
S'261'
p3551
tp3552
F0.5
tp3553
a((g926
S'331'
p3554
tp3555
F0.5
tp3556
a((g17
S'317'
p3557
tp3558
F0.6363636363636364
tp3559
a((g972
S'112'
p3560
tp3561
F0.5
tp3562
a((g743
S'312'
p3563
tp3564
F0.5
tp3565
a((S'727'
p3566
S'593'
p3567
tp3568
F0.5833333333333333
tp3569
a((g1227
S'109'
p3570
tp3571
F0.5
tp3572
a((g1346
S'572'
p3573
tp3574
F0.5
tp3575
a((S'38'
p3576
S'236'
p3577
tp3578
F0.6
tp3579
a((g839
S'330'
p3580
tp3581
F0.5833333333333333
tp3582
a((g1466
S'651'
p3583
tp3584
F0.5555555555555556
tp3585
a((g1
S'389'
p3586
tp3587
F0.7
tp3588
a((g972
S'35'
p3589
tp3590
F0.5
tp3591
a((g178
S'227'
p3592
tp3593
F0.5
tp3594
a((g1894
S'230'
p3595
tp3596
F0.6
tp3597
a((S'317'
p3598
S'316'
p3599
tp3600
F0.5833333333333333
tp3601
a((S'513'
p3602
S'389'
p3603
tp3604
F0.5
tp3605
a((g620
S'561'
p3606
tp3607
F0.5
tp3608
a((g3125
S'213'
p3609
tp3610
F0.5
tp3611
a((g1346
S'229'
p3612
tp3613
F0.5
tp3614
a((g25
S'306'
p3615
tp3616
F0.6363636363636364
tp3617
a((g739
S'347'
p3618
tp3619
F0.5
tp3620
a((g3267
S'131'
p3621
tp3622
F0.5
tp3623
a((S'192'
p3624
S'10'
p3625
tp3626
F0.5384615384615384
tp3627
a((S'771'
p3628
S'415'
p3629
tp3630
F0.5454545454545454
tp3631
a((S'324'
p3632
S'195'
p3633
tp3634
F0.5333333333333333
tp3635
a((g272
S'681'
p3636
tp3637
F0.5
tp3638
a((g77
S'375'
p3639
tp3640
F0.5
tp3641
a((g1125
S'247'
p3642
tp3643
F0.5
tp3644
a((g519
S'261'
p3645
tp3646
F0.5
tp3647
a((g217
S'214'
p3648
tp3649
F0.5714285714285714
tp3650
a((g1346
S'360'
p3651
tp3652
F0.5
tp3653
a((g743
S'190'
p3654
tp3655
F0.6363636363636364
tp3656
a((g3388
g684
tp3657
F0.5384615384615384
tp3658
a((g2102
S'227'
p3659
tp3660
F0.5454545454545454
tp3661
a((g743
S'313'
p3662
tp3663
F0.5454545454545454
tp3664
a((g750
S'418'
p3665
tp3666
F0.5454545454545454
tp3667
a((g17
S'316'
p3668
tp3669
F0.6666666666666667
tp3670
a((g735
S'166'
p3671
tp3672
F0.5
tp3673
a((S'64'
p3674
S'344'
p3675
tp3676
F0.5714285714285714
tp3677
a((g174
S'711'
p3678
tp3679
F0.5
tp3680
a((S'81'
p3681
S'400'
p3682
tp3683
F0.5
tp3684
a((g1353
S'194'
p3685
tp3686
F0.6153846153846154
tp3687
a((g45
S'270'
p3688
tp3689
F0.5
tp3690
a((g61
S'550'
p3691
tp3692
F0.6428571428571428
tp3693
a((g1625
S'674'
p3694
tp3695
F0.5833333333333333
tp3696
a((g53
S'49'
p3697
tp3698
F0.6
tp3699
a((g854
S'102'
p3700
tp3701
F0.5
tp3702
a((g3598
S'315'
p3703
tp3704
F0.6
tp3705
a((g291
S'407'
p3706
tp3707
F0.5
tp3708
a((g9
S'315'
p3709
tp3710
F0.5
tp3711
a((g57
S'306'
p3712
tp3713
F0.5
tp3714
a((g3632
S'194'
p3715
tp3716
F0.5333333333333333
tp3717
a((g374
S'160'
p3718
tp3719
F0.5714285714285714
tp3720
a((g1353
S'190'
p3721
tp3722
F0.5384615384615384
tp3723
a((g2321
S'110'
p3724
tp3725
F0.5333333333333333
tp3726
a((S'750'
p3727
S'559'
p3728
tp3729
F0.5
tp3730
a((g1098
S'150'
p3731
tp3732
F0.5652173913043479
tp3733
a((g1890
S'133'
p3734
tp3735
F0.5333333333333333
tp3736
a((g93
S'319'
p3737
tp3738
F0.6363636363636364
tp3739
a((S'136'
p3740
S'135'
p3741
tp3742
F0.65
tp3743
a((g1080
S'377'
p3744
tp3745
F0.5384615384615384
tp3746
a((S'517'
p3747
S'105'
p3748
tp3749
F0.5555555555555556
tp3750
a((g253
S'394'
p3751
tp3752
F0.6666666666666667
tp3753
a((S'314'
p3754
S'313'
p3755
tp3756
F0.5
tp3757
a((g1346
S'465'
p3758
tp3759
F0.5
tp3760
a((S'718'
p3761
S'571'
p3762
tp3763
F0.6153846153846154
tp3764
a((g1466
S'753'
p3765
tp3766
F0.5
tp3767
a((g246
S'223'
p3768
tp3769
F0.5
tp3770
a((g1462
S'417'
p3771
tp3772
F0.5454545454545454
tp3773
a((g951
S'306'
p3774
tp3775
F0.6666666666666667
tp3776
a((g113
S'106'
p3777
tp3778
F0.5
tp3779
a((g463
S'212'
p3780
tp3781
F0.5333333333333333
tp3782
a((g284
S'244'
p3783
tp3784
F0.5
tp3785
a((g89
S'513'
p3786
tp3787
F0.5
tp3788
a((g850
S'389'
p3789
tp3790
F0.52
tp3791
a((g25
S'227'
p3792
tp3793
F0.6
tp3794
a((g391
S'499'
p3795
tp3796
F0.5
tp3797
a((g205
S'286'
p3798
tp3799
F0.5625
tp3800
a((g359
S'404'
p3801
tp3802
F0.5
tp3803
a((S'352'
p3804
S'196'
p3805
tp3806
F0.6923076923076923
tp3807
a((g1466
S'653'
p3808
tp3809
F0.5555555555555556
tp3810
a((g242
S'754'
p3811
tp3812
F0.5333333333333333
tp3813
a((g2577
S'467'
p3814
tp3815
F0.5
tp3816
a((g499
S'391'
p3817
tp3818
F0.6
tp3819
a((g73
S'153'
p3820
tp3821
F0.5
tp3822
a((g2038
S'368'
p3823
tp3824
F0.5333333333333333
tp3825
a((g1159
S'132'
p3826
tp3827
F0.5555555555555556
tp3828
a((g3450
S'261'
p3829
tp3830
F0.5714285714285714
tp3831
a((S'40'
p3832
S'227'
p3833
tp3834
F0.5
tp3835
a((g515
S'176'
p3836
tp3837
F0.75
tp3838
a((g398
S'331'
p3839
tp3840
F0.5
tp3841
a((g850
S'663'
p3842
tp3843
F0.52
tp3844
a((g1466
S'613'
p3845
tp3846
F0.5714285714285714
tp3847
a((g9
S'312'
p3848
tp3849
F0.6666666666666667
tp3850
a((g437
S'683'
p3851
tp3852
F0.7391304347826086
tp3853
a((g242
S'478'
p3854
tp3855
F0.5384615384615384
tp3856
a((S'70'
p3857
S'355'
p3858
tp3859
F0.6
tp3860
a((g291
S'110'
p3861
tp3862
F0.5
tp3863
a((g1821
S'534'
p3864
tp3865
F0.5454545454545454
tp3866
a((g481
S'497'
p3867
tp3868
F0.6
tp3869
a((g65
S'306'
p3870
tp3871
F0.6363636363636364
tp3872
a((S'492'
p3873
S'255'
p3874
tp3875
F0.5454545454545454
tp3876
a((S'764'
p3877
S'758'
p3878
tp3879
F0.5
tp3880
a((S'827'
p3881
S'413'
p3882
tp3883
F0.5
tp3884
a((g113
S'430'
p3885
tp3886
F0.5
tp3887
a((g1578
S'447'
p3888
tp3889
F0.5384615384615384
tp3890
a((g3681
S'399'
p3891
tp3892
F0.5
tp3893
a((S'814'
p3894
S'689'
p3895
tp3896
F0.5185185185185186
tp3897
a((g3747
S'106'
p3898
tp3899
F0.5555555555555556
tp3900
a((g3727
S'594'
p3901
tp3902
F0.5
tp3903
a((S'739'
p3904
S'415'
p3905
tp3906
F0.5
tp3907
a((g337
S'341'
p3908
tp3909
F0.5
tp3910
a((g754
S'223'
p3911
tp3912
F0.5
tp3913
a((g503
S'29'
p3914
tp3915
F0.5384615384615384
tp3916
a((g1102
S'141'
p3917
tp3918
F0.6111111111111112
tp3919
a((g213
S'237'
p3920
tp3921
F0.5
tp3922
a((g3125
S'212'
p3923
tp3924
F0.5
tp3925
a((g89
S'663'
p3926
tp3927
F0.5217391304347826
tp3928
a((g253
S'23'
p3929
tp3930
F0.5384615384615384
tp3931
a((g242
S'418'
p3932
tp3933
F0.5454545454545454
tp3934
a((g113
S'31'
p3935
tp3936
F0.5
tp3937
a((g1202
S'154'
p3938
tp3939
F0.5714285714285714
tp3940
a((g1353
S'195'
p3941
tp3942
F0.6153846153846154
tp3943
a((S'385'
p3944
S'21'
p3945
tp3946
F0.5454545454545454
tp3947
a((S'47'
p3948
S'281'
p3949
tp3950
F0.5
tp3951
a((S'809'
p3952
S'612'
p3953
tp3954
F0.5
tp3955
a((S'853'
p3956
S'29'
p3957
tp3958
F0.6363636363636364
tp3959
a((g3804
S'197'
p3960
tp3961
F0.6923076923076923
tp3962
a((g363
S'313'
p3963
tp3964
F0.5384615384615384
tp3965
a((g363
S'190'
p3966
tp3967
F0.5384615384615384
tp3968
a((g69
S'395'
p3969
tp3970
F0.6666666666666667
tp3971
a((g3598
S'313'
p3972
tp3973
F0.5454545454545454
tp3974
a((g387
S'619'
p3975
tp3976
F0.6666666666666667
tp3977
a((g750
S'437'
p3978
tp3979
F0.5
tp3980
a((g425
S'552'
p3981
tp3982
F0.6428571428571428
tp3983
a((g374
S'326'
p3984
tp3985
F0.6363636363636364
tp3986
a((g2102
S'191'
p3987
tp3988
F0.5454545454545454
tp3989
a((g839
S'662'
p3990
tp3991
F0.5454545454545454
tp3992
a((S'68'
p3993
S'639'
p3994
tp3995
F0.5
tp3996
a((g993
S'375'
p3997
tp3998
F0.5294117647058824
tp3999
a((S'216'
p4000
S'180'
p4001
tp4002
F0.5897435897435898
tp4003
a((g17
S'50'
p4004
tp4005
F0.5454545454545454
tp4006
a((g2144
S'249'
p4007
tp4008
F0.7142857142857143
tp4009
a((g1693
S'513'
p4010
tp4011
F0.5185185185185186
tp4012
a((g2046
S'109'
p4013
tp4014
F0.5
tp4015
a((S'59'
p4016
S'332'
p4017
tp4018
F0.5714285714285714
tp4019
a((g664
S'452'
p4020
tp4021
F0.5384615384615384
tp4022
a((g743
S'494'
p4023
tp4024
F0.5
tp4025
a((g519
S'208'
p4026
tp4027
F0.5
tp4028
a((g276
S'131'
p4029
tp4030
F0.5555555555555556
tp4031
a((g3125
S'330'
p4032
tp4033
F0.5
tp4034
a((g725
S'182'
p4035
tp4036
F0.5
tp4037
a((g1102
S'591'
p4038
tp4039
F0.52
tp4040
a((g65
S'315'
p4041
tp4042
F0.6
tp4043
a((g3225
S'360'
p4044
tp4045
F0.5
tp4046
a((g2785
S'219'
p4047
tp4048
F0.5909090909090908
tp4049
a((g425
S'538'
p4050
tp4051
F0.5
tp4052
a((g17
S'313'
p4053
tp4054
F0.5454545454545454
tp4055
a((g129
S'307'
p4056
tp4057
F0.5384615384615384
tp4058
a((g25
S'316'
p4059
tp4060
F0.5
tp4061
a((S'858'
p4062
S'245'
p4063
tp4064
F0.5172413793103448
tp4065
a((S'661'
p4066
S'535'
p4067
tp4068
F0.5185185185185186
tp4069
a((S'531'
p4070
S'228'
p4071
tp4072
F0.5
tp4073
a((g337
S'21'
p4074
tp4075
F0.5454545454545454
tp4076
a((S'840'
p4077
S'388'
p4078
tp4079
F0.5
tp4080
a((g620
S'388'
p4081
tp4082
F0.5
tp4083
a((g2659
S'536'
p4084
tp4085
F0.6666666666666667
tp4086
a((g182
S'175'
p4087
tp4088
F0.5151515151515151
tp4089
a((g61
S'365'
p4090
tp4091
F0.5
tp4092
a((g174
S'789'
p4093
tp4094
F0.6428571428571428
tp4095
a((g398
S'418'
p4096
tp4097
F0.6666666666666667
tp4098
a((g141
S'393'
p4099
tp4100
F0.5454545454545454
tp4101
a((g1466
S'261'
p4102
tp4103
F0.5714285714285714
tp4104
a((g958
S'360'
p4105
tp4106
F0.5
tp4107
a((g363
S'191'
p4108
tp4109
F0.5384615384615384
tp4110
a((g69
S'394'
p4111
tp4112
F0.5
tp4113
a((g2038
S'624'
p4114
tp4115
F0.5333333333333333
tp4116
a((g3598
S'312'
p4117
tp4118
F0.5
tp4119
a((g739
S'110'
p4120
tp4121
F0.5
tp4122
a((g854
S'31'
p4123
tp4124
F0.6666666666666667
tp4125
a((g735
S'223'
p4126
tp4127
F0.5
tp4128
a((g854
S'101'
p4129
tp4130
F0.5
tp4131
a((g1333
S'277'
p4132
tp4133
F0.5
tp4134
a((g2102
S'311'
p4135
tp4136
F0.5454545454545454
tp4137
a((S'267'
p4138
S'19'
p4139
tp4140
F0.631578947368421
tp4141
a((g2102
S'190'
p4142
tp4143
F0.5454545454545454
tp4144
a((g101
S'214'
p4145
tp4146
F0.5
tp4147
a((g1346
S'209'
p4148
tp4149
F0.625
tp4150
a((S'360'
p4151
S'296'
p4152
tp4153
F0.5
tp4154
a((g2119
S'110'
p4155
tp4156
F0.5
tp4157
a((g1346
S'208'
p4158
tp4159
F0.625
tp4160
a((g77
S'159'
p4161
tp4162
F0.5625
tp4163
a((g519
S'209'
p4164
tp4165
F0.5
tp4166
a((g163
S'755'
p4167
tp4168
F0.5454545454545454
tp4169
a((g951
S'311'
p4170
tp4171
F0.5
tp4172
a((g3873
S'417'
p4173
tp4174
F0.5454545454545454
tp4175
a((g1021
S'562'
p4176
tp4177
F0.6
tp4178
a((S'857'
p4179
S'724'
p4180
tp4181
F0.6
tp4182
a((g65
S'316'
p4183
tp4184
F0.5
tp4185
a.